target datalayout = "e-m:e-p270:32:32-p271:32:32-p272:64:64-i64:64-i128:128-f80:128-n8:16:32:64-S128"
target triple = "x86_64-pc-linux-gnu"

@hf_ccp_opt_supported_bits = internal global i32 0, align 4
@ett_ccp_mppe_opt = internal global i32 0, align 4
@ett_ccp_mppe_opt_supp_bits = internal global i32 0, align 4
@proto_ccp_option_mppe = internal global i32 0, align 4
@dissect_ccp_mppe_opt.supported_bits_fields = internal constant [7 x ptr] [ptr @hf_ccp_opt_supported_bits_h, ptr @hf_ccp_opt_supported_bits_m, ptr @hf_ccp_opt_supported_bits_s, ptr @hf_ccp_opt_supported_bits_l, ptr @hf_ccp_opt_supported_bits_d, ptr @hf_ccp_opt_supported_bits_c, ptr null], align 16

; Function Attrs: null_pointer_is_valid sspstrong uwtable
define internal i32 @dissect_ccp_mppe_opt(ptr noundef %0, ptr noundef %1, ptr noundef %2, ptr noundef %3) #1 {
  %5 = alloca i32, align 4
  %6 = alloca ptr, align 8
  %7 = alloca ptr, align 8
  %8 = alloca ptr, align 8
  %9 = alloca ptr, align 8
  %10 = alloca ptr, align 8
  %11 = alloca ptr, align 8
  %12 = alloca i32, align 4
  %13 = alloca i32, align 4
  store ptr %0, ptr %6, align 8
  store ptr %1, ptr %7, align 8
  store ptr %2, ptr %8, align 8
  store ptr %3, ptr %9, align 8
  call void @llvm.lifetime.start.p0(i64 8, ptr %10) #6
  call void @llvm.lifetime.start.p0(i64 8, ptr %11) #6
  call void @llvm.lifetime.start.p0(i64 4, ptr %12) #6
  store i32 0, ptr %12, align 4
  %14 = load ptr, ptr %6, align 8
  %15 = load ptr, ptr %7, align 8
  %16 = load ptr, ptr %8, align 8
  %17 = load i32, ptr @proto_ccp_option_mppe, align 4
  %18 = load i32, ptr @ett_ccp_mppe_opt, align 4
  %19 = call zeroext i1 @dissect_ccp_fixed_opt(ptr noundef %14, ptr noundef %15, ptr noundef %16, i32 noundef %17, i32 noundef %18, i32 noundef 6, ptr noundef %10, ptr noundef %11)
  br i1 %19, label %23, label %20

20:                                               ; preds = %4
  %21 = load ptr, ptr %6, align 8
  %22 = call i32 @tvb_captured_length(ptr noundef %21)
  store i32 %22, ptr %5, align 4
  store i32 1, ptr %13, align 4
  br label %33

23:                                               ; preds = %4
  %24 = load ptr, ptr %10, align 8
  %25 = load ptr, ptr %6, align 8
  %26 = load i32, ptr %12, align 4
  %27 = add i32 %26, 2
  %28 = load i32, ptr @hf_ccp_opt_supported_bits, align 4
  %29 = load i32, ptr @ett_ccp_mppe_opt_supp_bits, align 4
  %30 = call ptr @proto_tree_add_bitmask(ptr noundef %24, ptr noundef %25, i32 noundef %27, i32 noundef %28, i32 noundef %29, ptr noundef @dissect_ccp_mppe_opt.supported_bits_fields, i32 noundef 0)
  %31 = load ptr, ptr %6, align 8
  %32 = call i32 @tvb_captured_length(ptr noundef %31)
  store i32 %32, ptr %5, align 4
  store i32 1, ptr %13, align 4
  br label %33

33:                                               ; preds = %23, %20
  call void @llvm.lifetime.end.p0(i64 4, ptr %12) #6
  call void @llvm.lifetime.end.p0(i64 8, ptr %11) #6
  call void @llvm.lifetime.end.p0(i64 8, ptr %10) #6
  %34 = load i32, ptr %5, align 4
  ret i32 %34
}